target datalayout = "e-m:e-p270:32:32-p271:32:32-p272:64:64-i64:64-i128:128-f80:128-n8:16:32:64-S128"
target triple = "x86_64-pc-linux-gnu"

%"class.cv::(anonymous namespace)::ufixedpoint16" = type { i16 }
%"class.cv::(anonymous namespace)::ufixedpoint32" = type { i32 }

; Function Attrs: inlinehint mustprogress nounwind uwtable
define linkonce_odr noundef nonnull align 4 dereferenceable(4) ptr @_ZSt3minIjERKT_S2_S2_(ptr noundef nonnull align 4 dereferenceable(4) %0, ptr noundef nonnull align 4 dereferenceable(4) %1) #9 comdat {
  %3 = alloca ptr, align 8
  %4 = alloca ptr, align 8
  %5 = alloca ptr, align 8
  store ptr %0, ptr %4, align 8, !tbaa !22
  store ptr %1, ptr %5, align 8, !tbaa !22
  %6 = load ptr, ptr %5, align 8, !tbaa !22
  %7 = load i32, ptr %6, align 4, !tbaa !10
  %8 = load ptr, ptr %4, align 8, !tbaa !22
  %9 = load i32, ptr %8, align 4, !tbaa !10
  %10 = icmp ult i32 %7, %9
  br i1 %10, label %11, label %13

11:                                               ; preds = %2
  %12 = load ptr, ptr %5, align 8, !tbaa !22
  store ptr %12, ptr %3, align 8
  br label %15

13:                                               ; preds = %2
  %14 = load ptr, ptr %4, align 8, !tbaa !22
  store ptr %14, ptr %3, align 8
  br label %15

15:                                               ; preds = %13, %11
  %16 = load ptr, ptr %3, align 8
  ret ptr %16
}

; Function Attrs: inlinehint mustprogress nounwind uwtable
define internal noundef zeroext i8 @_ZN2cvL13saturate_castIhEET_j(i32 noundef %0) #9 {
  %2 = alloca i32, align 4
  %3 = alloca i32, align 4
  store i32 %0, ptr %2, align 4, !tbaa !10
  call void @llvm.lifetime.start.p0(i64 4, ptr %3) #3
  store i32 255, ptr %3, align 4, !tbaa !10
  %4 = call noundef nonnull align 4 dereferenceable(4) ptr @_ZSt3minIjERKT_S2_S2_(ptr noundef nonnull align 4 dereferenceable(4) %2, ptr noundef nonnull align 4 dereferenceable(4) %3)
  %5 = load i32, ptr %4, align 4, !tbaa !10
  %6 = trunc i32 %5 to i8
  call void @llvm.lifetime.end.p0(i64 4, ptr %3) #3
  ret i8 %6
}

; Function Attrs: alwaysinline mustprogress nounwind uwtable
define internal noundef i32 @_ZN2cv12_GLOBAL__N_113ufixedpoint3210fixedroundERKj(ptr noundef nonnull align 4 dereferenceable(4) %0) #17 align 2 {
  %2 = alloca ptr, align 8
  store ptr %0, ptr %2, align 8, !tbaa !22
  %3 = load ptr, ptr %2, align 8, !tbaa !22
  %4 = load i32, ptr %3, align 4, !tbaa !10
  %5 = add i32 %4, 32768
  ret i32 %5
}

; Function Attrs: alwaysinline mustprogress uwtable
define internal noundef zeroext i8 @_ZNK2cv12_GLOBAL__N_113ufixedpoint3213saturate_castIhEET_v(ptr noundef nonnull align 4 dereferenceable(4) %0) #19 align 2 {
  %2 = alloca ptr, align 8
  store ptr %0, ptr %2, align 8, !tbaa !343
  %3 = load ptr, ptr %2, align 8
  %4 = getelementptr inbounds nuw %"class.cv::(anonymous namespace)::ufixedpoint32", ptr %3, i32 0, i32 0
  %5 = call noundef i32 @_ZN2cv12_GLOBAL__N_113ufixedpoint3210fixedroundERKj(ptr noundef nonnull align 4 dereferenceable(4) %4)
  %6 = lshr i32 %5, 16
  %7 = call noundef zeroext i8 @_ZN2cvL13saturate_castIhEET_j(i32 noundef %6)
  ret i8 %7
}

; Function Attrs: mustprogress nounwind uwtable
define internal void @_ZN2cv12_GLOBAL__N_113ufixedpoint32C2Ej(ptr noundef nonnull align 4 dereferenceable(4) %0, i32 noundef %1) unnamed_addr #7 align 2 {
  %3 = alloca ptr, align 8
  %4 = alloca i32, align 4
  store ptr %0, ptr %3, align 8, !tbaa !343
  store i32 %1, ptr %4, align 4, !tbaa !10
  %5 = load ptr, ptr %3, align 8
  %6 = getelementptr inbounds nuw %"class.cv::(anonymous namespace)::ufixedpoint32", ptr %5, i32 0, i32 0
  %7 = load i32, ptr %4, align 4, !tbaa !10
  store i32 %7, ptr %6, align 4, !tbaa !344
  ret void
}

; Function Attrs: alwaysinline mustprogress uwtable
define internal noundef zeroext i8 @_ZNK2cv12_GLOBAL__N_113ufixedpoint32cvhEv(ptr noundef nonnull align 4 dereferenceable(4) %0) #19 align 2 {
  %2 = alloca ptr, align 8
  store ptr %0, ptr %2, align 8, !tbaa !343
  %3 = load ptr, ptr %2, align 8
  %4 = call noundef zeroext i8 @_ZNK2cv12_GLOBAL__N_113ufixedpoint3213saturate_castIhEET_v(ptr noundef nonnull align 4 dereferenceable(4) %3)
  ret i8 %4
}

; Function Attrs: alwaysinline mustprogress uwtable
define internal void @_ZNK2cv12_GLOBAL__N_113ufixedpoint32plERKS1_(ptr dead_on_unwind noalias writable sret(%"class.cv::(anonymous namespace)::ufixedpoint32") align 4 %0, ptr noundef nonnull align 4 dereferenceable(4) %1, ptr noundef nonnull align 4 dereferenceable(4) %2) #19 align 2 {
  %4 = alloca ptr, align 8
  %5 = alloca ptr, align 8
  %6 = alloca ptr, align 8
  %7 = alloca i32, align 4
  store ptr %0, ptr %4, align 8
  store ptr %1, ptr %5, align 8, !tbaa !343
  store ptr %2, ptr %6, align 8, !tbaa !343
  %8 = load ptr, ptr %5, align 8
  call void @llvm.lifetime.start.p0(i64 4, ptr %7) #3
  %9 = getelementptr inbounds nuw %"class.cv::(anonymous namespace)::ufixedpoint32", ptr %8, i32 0, i32 0
  %10 = load i32, ptr %9, align 4, !tbaa !344
  %11 = load ptr, ptr %6, align 8, !tbaa !343
  %12 = getelementptr inbounds nuw %"class.cv::(anonymous namespace)::ufixedpoint32", ptr %11, i32 0, i32 0
  %13 = load i32, ptr %12, align 4, !tbaa !344
  %14 = add i32 %10, %13
  store i32 %14, ptr %7, align 4, !tbaa !10
  %15 = getelementptr inbounds nuw %"class.cv::(anonymous namespace)::ufixedpoint32", ptr %8, i32 0, i32 0
  %16 = load i32, ptr %15, align 4, !tbaa !344
  %17 = load i32, ptr %7, align 4, !tbaa !10
  %18 = icmp ugt i32 %16, %17
  br i1 %18, label %19, label %20

19:                                               ; preds = %3
  br label %22

20:                                               ; preds = %3
  %21 = load i32, ptr %7, align 4, !tbaa !10
  br label %22

22:                                               ; preds = %20, %19
  %23 = phi i32 [ -1, %19 ], [ %21, %20 ]
  call void @_ZN2cv12_GLOBAL__N_113ufixedpoint32C2Ej(ptr noundef nonnull align 4 dereferenceable(4) %0, i32 noundef %23)
  call void @llvm.lifetime.end.p0(i64 4, ptr %7) #3
  ret void
}

; Function Attrs: alwaysinline mustprogress uwtable
define internal void @_ZNK2cv12_GLOBAL__N_113ufixedpoint16mlERKS1_(ptr dead_on_unwind noalias writable sret(%"class.cv::(anonymous namespace)::ufixedpoint32") align 4 %0, ptr noundef nonnull align 2 dereferenceable(2) %1, ptr noundef nonnull align 2 dereferenceable(2) %2) #19 align 2 {
  %4 = alloca ptr, align 8
  %5 = alloca ptr, align 8
  %6 = alloca ptr, align 8
  store ptr %0, ptr %4, align 8
  store ptr %1, ptr %5, align 8, !tbaa !204
  store ptr %2, ptr %6, align 8, !tbaa !204
  %7 = load ptr, ptr %5, align 8
  %8 = getelementptr inbounds nuw %"class.cv::(anonymous namespace)::ufixedpoint16", ptr %7, i32 0, i32 0
  %9 = load i16, ptr %8, align 2, !tbaa !230
  %10 = zext i16 %9 to i32
  %11 = load ptr, ptr %6, align 8, !tbaa !204
  %12 = getelementptr inbounds nuw %"class.cv::(anonymous namespace)::ufixedpoint16", ptr %11, i32 0, i32 0
  %13 = load i16, ptr %12, align 2, !tbaa !230
  %14 = zext i16 %13 to i32
  %15 = mul i32 %10, %14
  call void @_ZN2cv12_GLOBAL__N_113ufixedpoint32C2Ej(ptr noundef nonnull align 4 dereferenceable(4) %0, i32 noundef %15)
  ret void
}

; Function Attrs: mustprogress uwtable
define internal void @_ZN2cv12cpu_baseline12_GLOBAL__N_113vlineSmooth3NIhNS_12_GLOBAL__N_113ufixedpoint16EEEvPKPKT0_S7_iPT_i(ptr noundef %0, ptr noundef %1, i32 noundef %2, ptr noundef %3, i32 noundef %4) #4 {
  %6 = alloca ptr, align 8
  %7 = alloca ptr, align 8
  %8 = alloca i32, align 4
  %9 = alloca ptr, align 8
  %10 = alloca i32, align 4
  %11 = alloca i32, align 4
  %12 = alloca %"class.cv::(anonymous namespace)::ufixedpoint32", align 4
  %13 = alloca %"class.cv::(anonymous namespace)::ufixedpoint32", align 4
  %14 = alloca %"class.cv::(anonymous namespace)::ufixedpoint32", align 4
  %15 = alloca %"class.cv::(anonymous namespace)::ufixedpoint32", align 4
  %16 = alloca %"class.cv::(anonymous namespace)::ufixedpoint32", align 4
  store ptr %0, ptr %6, align 8, !tbaa !311
  store ptr %1, ptr %7, align 8, !tbaa !204
  store i32 %2, ptr %8, align 4, !tbaa !10
  store ptr %3, ptr %9, align 8, !tbaa !82
  store i32 %4, ptr %10, align 4, !tbaa !10
  call void @llvm.lifetime.start.p0(i64 4, ptr %11) #3
  store i32 0, ptr %11, align 4, !tbaa !10
  br label %17

17:                                               ; preds = %51, %5
  %18 = load i32, ptr %11, align 4, !tbaa !10
  %19 = load i32, ptr %10, align 4, !tbaa !10
  %20 = icmp slt i32 %18, %19
  br i1 %20, label %21, label %54

21:                                               ; preds = %17
  call void @llvm.lifetime.start.p0(i64 4, ptr %12) #3
  call void @llvm.lifetime.start.p0(i64 4, ptr %13) #3
  call void @llvm.lifetime.start.p0(i64 4, ptr %14) #3
  %22 = load ptr, ptr %7, align 8, !tbaa !204
  %23 = getelementptr inbounds %"class.cv::(anonymous namespace)::ufixedpoint16", ptr %22, i64 0
  %24 = load ptr, ptr %6, align 8, !tbaa !311
  %25 = getelementptr inbounds ptr, ptr %24, i64 0
  %26 = load ptr, ptr %25, align 8, !tbaa !204
  %27 = load i32, ptr %11, align 4, !tbaa !10
  %28 = sext i32 %27 to i64
  %29 = getelementptr inbounds %"class.cv::(anonymous namespace)::ufixedpoint16", ptr %26, i64 %28
  call void @_ZNK2cv12_GLOBAL__N_113ufixedpoint16mlERKS1_(ptr dead_on_unwind writable sret(%"class.cv::(anonymous namespace)::ufixedpoint32") align 4 %14, ptr noundef nonnull align 2 dereferenceable(2) %23, ptr noundef nonnull align 2 dereferenceable(2) %29)
  call void @llvm.lifetime.start.p0(i64 4, ptr %15) #3
  %30 = load ptr, ptr %7, align 8, !tbaa !204
  %31 = getelementptr inbounds %"class.cv::(anonymous namespace)::ufixedpoint16", ptr %30, i64 1
  %32 = load ptr, ptr %6, align 8, !tbaa !311
  %33 = getelementptr inbounds ptr, ptr %32, i64 1
  %34 = load ptr, ptr %33, align 8, !tbaa !204
  %35 = load i32, ptr %11, align 4, !tbaa !10
  %36 = sext i32 %35 to i64
  %37 = getelementptr inbounds %"class.cv::(anonymous namespace)::ufixedpoint16", ptr %34, i64 %36
  call void @_ZNK2cv12_GLOBAL__N_113ufixedpoint16mlERKS1_(ptr dead_on_unwind writable sret(%"class.cv::(anonymous namespace)::ufixedpoint32") align 4 %15, ptr noundef nonnull align 2 dereferenceable(2) %31, ptr noundef nonnull align 2 dereferenceable(2) %37)
  call void @_ZNK2cv12_GLOBAL__N_113ufixedpoint32plERKS1_(ptr dead_on_unwind writable sret(%"class.cv::(anonymous namespace)::ufixedpoint32") align 4 %13, ptr noundef nonnull align 4 dereferenceable(4) %14, ptr noundef nonnull align 4 dereferenceable(4) %15)
  call void @llvm.lifetime.start.p0(i64 4, ptr %16) #3
  %38 = load ptr, ptr %7, align 8, !tbaa !204
  %39 = getelementptr inbounds %"class.cv::(anonymous namespace)::ufixedpoint16", ptr %38, i64 2
  %40 = load ptr, ptr %6, align 8, !tbaa !311
  %41 = getelementptr inbounds ptr, ptr %40, i64 2
  %42 = load ptr, ptr %41, align 8, !tbaa !204
  %43 = load i32, ptr %11, align 4, !tbaa !10
  %44 = sext i32 %43 to i64
  %45 = getelementptr inbounds %"class.cv::(anonymous namespace)::ufixedpoint16", ptr %42, i64 %44
  call void @_ZNK2cv12_GLOBAL__N_113ufixedpoint16mlERKS1_(ptr dead_on_unwind writable sret(%"class.cv::(anonymous namespace)::ufixedpoint32") align 4 %16, ptr noundef nonnull align 2 dereferenceable(2) %39, ptr noundef nonnull align 2 dereferenceable(2) %45)
  call void @_ZNK2cv12_GLOBAL__N_113ufixedpoint32plERKS1_(ptr dead_on_unwind writable sret(%"class.cv::(anonymous namespace)::ufixedpoint32") align 4 %12, ptr noundef nonnull align 4 dereferenceable(4) %13, ptr noundef nonnull align 4 dereferenceable(4) %16)
  %46 = call noundef zeroext i8 @_ZNK2cv12_GLOBAL__N_113ufixedpoint32cvhEv(ptr noundef nonnull align 4 dereferenceable(4) %12)
  %47 = load ptr, ptr %9, align 8, !tbaa !82
  %48 = load i32, ptr %11, align 4, !tbaa !10
  %49 = sext i32 %48 to i64
  %50 = getelementptr inbounds i8, ptr %47, i64 %49
  store i8 %46, ptr %50, align 1, !tbaa !42
  call void @llvm.lifetime.end.p0(i64 4, ptr %16) #3
  call void @llvm.lifetime.end.p0(i64 4, ptr %15) #3
  call void @llvm.lifetime.end.p0(i64 4, ptr %14) #3
  call void @llvm.lifetime.end.p0(i64 4, ptr %13) #3
  call void @llvm.lifetime.end.p0(i64 4, ptr %12) #3
  br label %51

51:                                               ; preds = %21
  %52 = load i32, ptr %11, align 4, !tbaa !10
  %53 = add nsw i32 %52, 1
  store i32 %53, ptr %11, align 4, !tbaa !10
  br label %17, !llvm.loop !316

54:                                               ; preds = %17
  call void @llvm.lifetime.end.p0(i64 4, ptr %11) #3
  ret void
}