; Function Attrs: mustprogress nofree norecurse nosync nounwind memory(read, argmem: readwrite, inaccessiblemem: none) uwtable
define internal void @_ZN2cv12cpu_baseline12_GLOBAL__N_113vlineSmooth3NIhNS_12_GLOBAL__N_113ufixedpoint16EEEvPKPKT0_S7_iPT_i(ptr noundef readonly captures(none) %0, ptr noundef readonly captures(none) %1, i32 %2, ptr noundef writeonly captures(none) %3, i32 noundef %4) #17 {
  %6 = icmp sgt i32 %4, 0
  br i1 %6, label %.lr.ph, label %._crit_edge

.lr.ph:                                           ; preds = %5
  %7 = getelementptr inbounds nuw i8, ptr %1, i64 2
  %8 = getelementptr inbounds nuw i8, ptr %0, i64 8
  %9 = getelementptr inbounds nuw i8, ptr %1, i64 4
  %10 = getelementptr inbounds nuw i8, ptr %0, i64 16
  %wide.trip.count = zext nneg i32 %4 to i64
  br label %11

11:                                               ; preds = %.lr.ph, %11
  %indvars.iv = phi i64 [ 0, %.lr.ph ], [ %indvars.iv.next, %11 ]
  %12 = load ptr, ptr %0, align 8, !tbaa !901
  %13 = getelementptr inbounds nuw %"class.cv::(anonymous namespace)::ufixedpoint16", ptr %12, i64 %indvars.iv
  %14 = load i16, ptr %1, align 2, !tbaa !41, !noalias !908
  %15 = zext i16 %14 to i32
  %16 = load i16, ptr %13, align 2, !tbaa !41, !noalias !908
  %17 = zext i16 %16 to i32
  %18 = mul nuw i32 %17, %15
  %19 = load ptr, ptr %8, align 8, !tbaa !901
  %20 = getelementptr inbounds nuw %"class.cv::(anonymous namespace)::ufixedpoint16", ptr %19, i64 %indvars.iv
  %21 = load i16, ptr %7, align 2, !tbaa !41, !noalias !911
  %22 = zext i16 %21 to i32
  %23 = load i16, ptr %20, align 2, !tbaa !41, !noalias !911
  %24 = zext i16 %23 to i32
  %25 = mul nuw i32 %24, %22
  %26 = tail call i32 @llvm.uadd.sat.i32(i32 %18, i32 %25)
  %27 = load ptr, ptr %10, align 8, !tbaa !901
  %28 = getelementptr inbounds nuw %"class.cv::(anonymous namespace)::ufixedpoint16", ptr %27, i64 %indvars.iv
  %29 = load i16, ptr %9, align 2, !tbaa !41, !noalias !914
  %30 = zext i16 %29 to i32
  %31 = load i16, ptr %28, align 2, !tbaa !41, !noalias !914
  %32 = zext i16 %31 to i32
  %33 = mul nuw i32 %32, %30
  %34 = tail call i32 @llvm.uadd.sat.i32(i32 %26, i32 %33)
  %35 = add i32 %34, 32768
  %36 = lshr i32 %35, 16
  %.sroa.speculated.i = tail call i32 @llvm.umin.i32(i32 range(i32 0, 65536) %36, i32 255)
  %37 = trunc nuw i32 %.sroa.speculated.i to i8
  %38 = getelementptr inbounds nuw i8, ptr %3, i64 %indvars.iv
  store i8 %37, ptr %38, align 1, !tbaa !282
  %indvars.iv.next = add nuw nsw i64 %indvars.iv, 1
  %exitcond.not = icmp eq i64 %indvars.iv.next, %wide.trip.count
  br i1 %exitcond.not, label %._crit_edge, label %11, !llvm.loop !917

._crit_edge:                                      ; preds = %11, %5
  ret void
}